; Function Attrs: nofree norecurse nosync nounwind memory(argmem: readwrite) uwtable
define internal void @maskedmax32(ptr noundef readonly captures(none) %0, ptr noundef writeonly captures(none) %1, ptr noundef readonly captures(none) %2, ptr noundef readonly captures(none) %3, i32 noundef %4) #5 {
  %6 = icmp sgt i32 %4, 0
  br i1 %6, label %.lr.ph.preheader, label %._crit_edge

.lr.ph.preheader:                                 ; preds = %5
  %wide.trip.count = zext nneg i32 %4 to i64
  br label %.lr.ph

._crit_edge:                                      ; preds = %.lr.ph, %5
  ret void

.lr.ph:                                           ; preds = %.lr.ph.preheader, %.lr.ph
  %indvars.iv = phi i64 [ 0, %.lr.ph.preheader ], [ %indvars.iv.next, %.lr.ph ]
  %7 = getelementptr inbounds nuw float, ptr %0, i64 %indvars.iv
  %8 = load float, ptr %7, align 4, !tbaa !54
  %9 = getelementptr inbounds nuw float, ptr %3, i64 %indvars.iv
  %10 = load float, ptr %9, align 4, !tbaa !54
  %11 = fsub nsz float %8, %10
  %12 = fcmp nsz ult float %11, 0.000000e+00
  %13 = fneg nsz float %11
  %14 = select nsz i1 %12, float %13, float %11
  %15 = getelementptr inbounds nuw float, ptr %2, i64 %indvars.iv
  %16 = load float, ptr %15, align 4, !tbaa !54
  %17 = fsub nsz float %8, %16
  %18 = fcmp nsz ult float %17, 0.000000e+00
  %19 = fneg nsz float %17
  %20 = select nsz i1 %18, float %19, float %17
  %21 = fcmp nsz ogt float %14, %20
  %22 = select i1 %21, float %10, float %16
  %23 = getelementptr inbounds nuw float, ptr %1, i64 %indvars.iv
  store float %22, ptr %23, align 4, !tbaa !54
  %indvars.iv.next = add nuw nsw i64 %indvars.iv, 1
  %exitcond.not = icmp eq i64 %indvars.iv.next, %wide.trip.count
  br i1 %exitcond.not, label %._crit_edge, label %.lr.ph, !llvm.loop !57
}